; Function Attrs: nounwind uwtable
define range(i32 -173, -2147483648) i32 @wolfSSL_recv(ptr noundef %0, ptr noundef %1, i32 noundef %2, i32 noundef %3) local_unnamed_addr #0 {
  %5 = icmp eq ptr %0, null
  %6 = icmp eq ptr %1, null
  %or.cond = or i1 %5, %6
  %7 = icmp slt i32 %2, 0
  %or.cond3 = or i1 %or.cond, %7
  br i1 %or.cond3, label %13, label %wolfSSL_read.exit

wolfSSL_read.exit:                                ; preds = %4
  %8 = getelementptr inbounds nuw i8, ptr %0, i64 676
  %9 = load i32, ptr %8, align 4, !tbaa !170
  store i32 %3, ptr %8, align 4, !tbaa !170
  %10 = zext nneg i32 %2 to i64
  %11 = tail call ptr @__errno_location() #24
  store i32 0, ptr %11, align 4, !tbaa !3
  %12 = tail call i32 @ReceiveData(ptr noundef nonnull %0, ptr noundef nonnull %1, i64 noundef %10, i32 noundef 0) #22
  %..i.i = tail call i32 @llvm.smax.i32(i32 %12, i32 -1)
  store i32 %9, ptr %8, align 4, !tbaa !170
  br label %13

13:                                               ; preds = %4, %wolfSSL_read.exit
  %.0 = phi i32 [ %..i.i, %wolfSSL_read.exit ], [ -173, %4 ]
  ret i32 %.0
}